(lp0
VAbuse001_x264
p1
aVAbuse002_x264
p2
aVAbuse003_x264
p3
aVAbuse004_x264
p4
aVAbuse005_x264
p5
aVAbuse006_x264
p6
aVAbuse007_x264
p7
aVAbuse008_x264
p8
aVAbuse009_x264
p9
aVAbuse010_x264
p10
aVAbuse011_x264
p11
aVAbuse012_x264
p12
aVAbuse013_x264
p13
aVAbuse014_x264
p14
aVAbuse015_x264
p15
aVAbuse016_x264
p16
aVAbuse017_x264
p17
aVAbuse018_x264
p18
aVAbuse019_x264
p19
aVAbuse020_x264
p20
aVAbuse021_x264
p21
aVAbuse022_x264
p22
aVAbuse023_x264
p23
aVAbuse024_x264
p24
aVAbuse025_x264
p25
aVAbuse026_x264
p26
aVAbuse027_x264
p27
aVAbuse029_x264
p28
aVAbuse031_x264
p29
aVAbuse032_x264
p30
aVAbuse033_x264
p31
aVAbuse034_x264
p32
aVAbuse035_x264
p33
aVAbuse036_x264
p34
aVAbuse037_x264
p35
aVAbuse038_x264
p36
aVAbuse039_x264
p37
aVAbuse040_x264
p38
aVAbuse041_x264
p39
aVAbuse042_x264
p40
aVAbuse043_x264
p41
aVAbuse044_x264
p42
aVAbuse045_x264
p43
aVAbuse046_x264
p44
aVAbuse047_x264
p45
aVAbuse048_x264
p46
aVAbuse049_x264
p47
aVAbuse050_x264
p48
aVArrest002_x264
p49
aVArrest003_x264
p50
aVArrest004_x264
p51
aVArrest005_x264
p52
aVArrest006_x264
p53
aVArrest008_x264
p54
aVArrest009_x264
p55
aVArrest010_x264
p56
aVArrest011_x264
p57
aVArrest012_x264
p58
aVArrest013_x264
p59
aVArrest014_x264
p60
aVArrest015_x264
p61
aVArrest016_x264
p62
aVArrest017_x264
p63
aVArrest018_x264
p64
aVArrest019_x264
p65
aVArrest020_x264
p66
aVArrest021_x264
p67
aVArrest022_x264
p68
aVArrest023_x264
p69
aVArrest025_x264
p70
aVArrest026_x264
p71
aVArrest027_x264
p72
aVArrest028_x264
p73
aVArrest029_x264
p74
aVArrest031_x264
p75
aVArrest032_x264
p76
aVArrest033_x264
p77
aVArrest034_x264
p78
aVArrest035_x264
p79
aVArrest036_x264
p80
aVArrest037_x264
p81
aVArrest038_x264
p82
aVArrest040_x264
p83
aVArrest041_x264
p84
aVArrest042_x264
p85
aVArrest043_x264
p86
aVArrest044_x264
p87
aVArrest046_x264
p88
aVArrest047_x264
p89
aVArrest048_x264
p90
aVArrest049_x264
p91
aVArrest050_x264
p92
aVArrest051_x264
p93
aVArson001_x264
p94
aVArson002_x264
p95
aVArson003_x264
p96
aVArson005_x264
p97
aVArson006_x264
p98
aVArson008_x264
p99
aVArson012_x264
p100
aVArson013_x264
p101
aVArson014_x264
p102
aVArson015_x264
p103
aVArson017_x264
p104
aVArson019_x264
p105
aVArson020_x264
p106
aVArson021_x264
p107
aVArson023_x264
p108
aVArson024_x264
p109
aVArson025_x264
p110
aVArson026_x264
p111
aVArson027_x264
p112
aVArson028_x264
p113
aVArson029_x264
p114
aVArson030_x264
p115
aVArson031_x264
p116
aVArson032_x264
p117
aVArson034_x264
p118
aVArson036_x264
p119
aVArson037_x264
p120
aVArson038_x264
p121
aVArson039_x264
p122
aVArson040_x264
p123
aVArson042_x264
p124
aVArson044_x264
p125
aVArson045_x264
p126
aVArson046_x264
p127
aVArson047_x264
p128
aVArson048_x264
p129
aVArson049_x264
p130
aVArson050_x264
p131
aVArson051_x264
p132
aVArson052_x264
p133
aVArson053_x264
p134
aVAssault001_x264
p135
aVAssault002_x264
p136
aVAssault003_x264
p137
aVAssault004_x264
p138
aVAssault005_x264
p139
aVAssault007_x264
p140
aVAssault008_x264
p141
aVAssault009_x264
p142
aVAssault012_x264
p143
aVAssault013_x264
p144
aVAssault014_x264
p145
aVAssault015_x264
p146
aVAssault016_x264
p147
aVAssault017_x264
p148
aVAssault018_x264
p149
aVAssault019_x264
p150
aVAssault020_x264
p151
aVAssault022_x264
p152
aVAssault023_x264
p153
aVAssault024_x264
p154
aVAssault025_x264
p155
aVAssault026_x264
p156
aVAssault027_x264
p157
aVAssault028_x264
p158
aVAssault029_x264
p159
aVAssault030_x264
p160
aVAssault031_x264
p161
aVAssault032_x264
p162
aVAssault033_x264
p163
aVAssault034_x264
p164
aVAssault035_x264
p165
aVAssault036_x264
p166
aVAssault037_x264
p167
aVAssault038_x264
p168
aVAssault039_x264
p169
aVAssault040_x264
p170
aVAssault041_x264
p171
aVAssault042_x264
p172
aVAssault044_x264
p173
aVAssault045_x264
p174
aVAssault046_x264
p175
aVAssault047_x264
p176
aVAssault048_x264
p177
aVAssault049_x264
p178
aVAssault050_x264
p179
aVAssault051_x264
p180
aVAssault052_x264
p181
aVBurglary001_x264
p182
aVBurglary002_x264
p183
aVBurglary003_x264
p184
aVBurglary004_x264
p185
aVBurglary006_x264
p186
aVBurglary007_x264
p187
aVBurglary008_x264
p188
aVBurglary009_x264
p189
aVBurglary010_x264
p190
aVBurglary011_x264
p191
aVBurglary012_x264
p192
aVBurglary013_x264
p193
aVBurglary014_x264
p194
aVBurglary015_x264
p195
aVBurglary016_x264
p196
aVBurglary019_x264
p197
aVBurglary020_x264
p198
aVBurglary022_x264
p199
aVBurglary023_x264
p200
aVBurglary025_x264
p201
aVBurglary026_x264
p202
aVBurglary027_x264
p203
aVBurglary028_x264
p204
aVBurglary029_x264
p205
aVBurglary030_x264
p206
aVBurglary031_x264
p207
aVBurglary034_x264
p208
aVBurglary036_x264
p209
aVBurglary038_x264
p210
aVBurglary039_x264
p211
aVBurglary040_x264
p212
aVBurglary041_x264
p213
aVBurglary042_x264
p214
aVBurglary043_x264
p215
aVBurglary044_x264
p216
aVBurglary045_x264
p217
aVBurglary046_x264
p218
aVBurglary047_x264
p219
aVBurglary048_x264
p220
aVBurglary049_x264
p221
aVBurglary050_x264
p222
aVBurglary051_x264
p223
aVBurglary052_x264
p224
aVBurglary053_x264
p225
aVBurglary054_x264
p226
aVBurglary055_x264
p227
aVBurglary056_x264
p228
aVBurglary057_x264
p229
aVBurglary058_x264
p230
aVBurglary059_x264
p231
aVBurglary060_x264
p232
aVBurglary062_x264
p233
aVBurglary063_x264
p234
aVBurglary064_x264
p235
aVBurglary065_x264
p236
aVBurglary066_x264
p237
aVBurglary067_x264
p238
aVBurglary068_x264
p239
aVBurglary069_x264
p240
aVBurglary070_x264
p241
aVBurglary071_x264
p242
aVBurglary072_x264
p243
aVBurglary073_x264
p244
aVBurglary074_x264
p245
aVBurglary075_x264
p246
aVBurglary077_x264
p247
aVBurglary078_x264
p248
aVBurglary080_x264
p249
aVBurglary081_x264
p250
aVBurglary082_x264
p251
aVBurglary083_x264
p252
aVBurglary084_x264
p253
aVBurglary085_x264
p254
aVBurglary086_x264
p255
aVBurglary087_x264
p256
aVBurglary088_x264
p257
aVBurglary089_x264
p258
aVBurglary090_x264
p259
aVBurglary091_x264
p260
aVBurglary093_x264
p261
aVBurglary094_x264
p262
aVBurglary095_x264
p263
aVBurglary096_x264
p264
aVBurglary097_x264
p265
aVBurglary098_x264
p266
aVBurglary099_x264
p267
aVBurglary100_x264
p268
aVExplosion001_x264
p269
aVExplosion003_x264
p270
aVExplosion005_x264
p271
aVExplosion006_x264
p272
aVExplosion009_x264
p273
aVExplosion012_x264
p274
aVExplosion014_x264
p275
aVExplosion015_x264
p276
aVExplosion018_x264
p277
aVExplosion019_x264
p278
aVExplosion023_x264
p279
aVExplosion024_x264
p280
aVExplosion026_x264
p281
aVExplosion030_x264
p282
aVExplosion032_x264
p283
aVExplosion034_x264
p284
aVExplosion037_x264
p285
aVExplosion038_x264
p286
aVExplosion040_x264
p287
aVExplosion041_x264
p288
aVExplosion042_x264
p289
aVExplosion044_x264
p290
aVExplosion045_x264
p291
aVExplosion046_x264
p292
aVExplosion047_x264
p293
aVExplosion048_x264
p294
aVExplosion050_x264
p295
aVExplosion051_x264
p296
aVExplosion052_x264
p297
aVFighting002_x264
p298
aVFighting004_x264
p299
aVFighting005_x264
p300
aVFighting006_x264
p301
aVFighting007_x264
p302
aVFighting008_x264
p303
aVFighting009_x264
p304
aVFighting010_x264
p305
aVFighting011_x264
p306
aVFighting012_x264
p307
aVFighting013_x264
p308
aVFighting014_x264
p309
aVFighting015_x264
p310
aVFighting016_x264
p311
aVFighting017_x264
p312
aVFighting019_x264
p313
aVFighting020_x264
p314
aVFighting021_x264
p315
aVFighting022_x264
p316
aVFighting023_x264
p317
aVFighting024_x264
p318
aVFighting025_x264
p319
aVFighting026_x264
p320
aVFighting027_x264
p321
aVFighting028_x264
p322
aVFighting029_x264
p323
aVFighting030_x264
p324
aVFighting031_x264
p325
aVFighting032_x264
p326
aVFighting034_x264
p327
aVFighting035_x264
p328
aVFighting036_x264
p329
aVFighting037_x264
p330
aVFighting038_x264
p331
aVFighting039_x264
p332
aVFighting040_x264
p333
aVFighting041_x264
p334
aVFighting043_x264
p335
aVFighting044_x264
p336
aVFighting045_x264
p337
aVFighting046_x264
p338
aVFighting048_x264
p339
aVFighting049_x264
p340
aVFighting050_x264
p341
aVFighting051_x264
p342
aVRoadAccidents003_x264
p343
aVRoadAccidents005_x264
p344
aVRoadAccidents006_x264
p345
aVRoadAccidents007_x264
p346
aVRoadAccidents008_x264
p347
aVRoadAccidents013_x264
p348
aVRoadAccidents014_x264
p349
aVRoadAccidents015_x264
p350
aVRoadAccidents018_x264
p351
aVRoadAccidents023_x264
p352
aVRoadAccidents024_x264
p353
aVRoadAccidents025_x264
p354
aVRoadAccidents026_x264
p355
aVRoadAccidents027_x264
p356
aVRoadAccidents028_x264
p357
aVRoadAccidents029_x264
p358
aVRoadAccidents030_x264
p359
aVRoadAccidents031_x264
p360
aVRoadAccidents032_x264
p361
aVRoadAccidents033_x264
p362
aVRoadAccidents034_x264
p363
aVRoadAccidents035_x264
p364
aVRoadAccidents036_x264
p365
aVRoadAccidents037_x264
p366
aVRoadAccidents038_x264
p367
aVRoadAccidents039_x264
p368
aVRoadAccidents040_x264
p369
aVRoadAccidents041_x264
p370
aVRoadAccidents042_x264
p371
aVRoadAccidents043_x264
p372
aVRoadAccidents044_x264
p373
aVRoadAccidents046_x264
p374
aVRoadAccidents047_x264
p375
aVRoadAccidents048_x264
p376
aVRoadAccidents049_x264
p377
aVRoadAccidents050_x264
p378
aVRoadAccidents051_x264
p379
aVRoadAccidents052_x264
p380
aVRoadAccidents053_x264
p381
aVRoadAccidents054_x264
p382
aVRoadAccidents055_x264
p383
aVRoadAccidents056_x264
p384
aVRoadAccidents057_x264
p385
aVRoadAccidents058_x264
p386
aVRoadAccidents059_x264
p387
aVRoadAccidents060_x264
p388
aVRoadAccidents061_x264
p389
aVRoadAccidents062_x264
p390
aVRoadAccidents063_x264
p391
aVRoadAccidents064_x264
p392
aVRoadAccidents065_x264
p393
aVRoadAccidents066_x264
p394
aVRoadAccidents067_x264
p395
aVRoadAccidents068_x264
p396
aVRoadAccidents069_x264
p397
aVRoadAccidents070_x264
p398
aVRoadAccidents071_x264
p399
aVRoadAccidents072_x264
p400
aVRoadAccidents073_x264
p401
aVRoadAccidents074_x264
p402
aVRoadAccidents075_x264
p403
aVRoadAccidents076_x264
p404
aVRoadAccidents077_x264
p405
aVRoadAccidents078_x264
p406
aVRoadAccidents079_x264
p407
aVRoadAccidents080_x264
p408
aVRoadAccidents081_x264
p409
aVRoadAccidents082_x264
p410
aVRoadAccidents083_x264
p411
aVRoadAccidents084_x264
p412
aVRoadAccidents085_x264
p413
aVRoadAccidents086_x264
p414
aVRoadAccidents087_x264
p415
aVRoadAccidents088_x264
p416
aVRoadAccidents089_x264
p417
aVRoadAccidents090_x264
p418
aVRoadAccidents091_x264
p419
aVRoadAccidents092_x264
p420
aVRoadAccidents093_x264
p421
aVRoadAccidents094_x264
p422
aVRoadAccidents095_x264
p423
aVRoadAccidents096_x264
p424
aVRoadAccidents097_x264
p425
aVRoadAccidents098_x264
p426
aVRoadAccidents099_x264
p427
aVRoadAccidents100_x264
p428
aVRoadAccidents101_x264
p429
aVRoadAccidents102_x264
p430
aVRoadAccidents103_x264
p431
aVRoadAccidents104_x264
p432
aVRoadAccidents105_x264
p433
aVRoadAccidents106_x264
p434
aVRoadAccidents107_x264
p435
aVRoadAccidents108_x264
p436
aVRoadAccidents109_x264
p437
aVRoadAccidents110_x264
p438
aVRoadAccidents111_x264
p439
aVRoadAccidents112_x264
p440
aVRoadAccidents113_x264
p441
aVRoadAccidents114_x264
p442
aVRoadAccidents115_x264
p443
aVRoadAccidents116_x264
p444
aVRoadAccidents117_x264
p445
aVRoadAccidents118_x264
p446
aVRoadAccidents119_x264
p447
aVRoadAccidents120_x264
p448
aVRoadAccidents126_x264
p449
aVRoadAccidents129_x264
p450
aVRoadAccidents130_x264
p451
aVRoadAccidents134_x264
p452
aVRoadAccidents135_x264
p453
aVRoadAccidents136_x264
p454
aVRoadAccidents137_x264
p455
aVRoadAccidents138_x264
p456
aVRoadAccidents139_x264
p457
aVRoadAccidents140_x264
p458
aVRoadAccidents141_x264
p459
aVRoadAccidents142_x264
p460
aVRoadAccidents143_x264
p461
aVRoadAccidents144_x264
p462
aVRoadAccidents145_x264
p463
aVRoadAccidents146_x264
p464
aVRoadAccidents147_x264
p465
aVRoadAccidents148_x264
p466
aVRoadAccidents149_x264
p467
aVRoadAccidents150_x264
p468
aVRoadAccidents151_x264
p469
aVRobbery001_x264
p470
aVRobbery002_x264
p471
aVRobbery003_x264
p472
aVRobbery004_x264
p473
aVRobbery005_x264
p474
aVRobbery006_x264
p475
aVRobbery007_x264
p476
aVRobbery008_x264
p477
aVRobbery009_x264
p478
aVRobbery010_x264
p479
aVRobbery011_x264
p480
aVRobbery012_x264
p481
aVRobbery013_x264
p482
aVRobbery014_x264
p483
aVRobbery015_x264
p484
aVRobbery016_x264
p485
aVRobbery017_x264
p486
aVRobbery018_x264
p487
aVRobbery019_x264
p488
aVRobbery020_x264
p489
aVRobbery021_x264
p490
aVRobbery022_x264
p491
aVRobbery023_x264
p492
aVRobbery024_x264
p493
aVRobbery025_x264
p494
aVRobbery026_x264
p495
aVRobbery027_x264
p496
aVRobbery028_x264
p497
aVRobbery029_x264
p498
aVRobbery030_x264
p499
aVRobbery031_x264
p500
aVRobbery032_x264
p501
aVRobbery033_x264
p502
aVRobbery034_x264
p503
aVRobbery035_x264
p504
aVRobbery036_x264
p505
aVRobbery037_x264
p506
aVRobbery038_x264
p507
aVRobbery039_x264
p508
aVRobbery040_x264
p509
aVRobbery041_x264
p510
aVRobbery042_x264
p511
aVRobbery043_x264
p512
aVRobbery044_x264
p513
aVRobbery045_x264
p514
aVRobbery046_x264
p515
aVRobbery047_x264
p516
aVRobbery049_x264
p517
aVRobbery051_x264
p518
aVRobbery052_x264
p519
aVRobbery053_x264
p520
aVRobbery054_x264
p521
aVRobbery055_x264
p522
aVRobbery056_x264
p523
aVRobbery057_x264
p524
aVRobbery058_x264
p525
aVRobbery059_x264
p526
aVRobbery060_x264
p527
aVRobbery061_x264
p528
aVRobbery062_x264
p529
aVRobbery063_x264
p530
aVRobbery064_x264
p531
aVRobbery065_x264
p532
aVRobbery066_x264
p533
aVRobbery067_x264
p534
aVRobbery068_x264
p535
aVRobbery069_x264
p536
aVRobbery070_x264
p537
aVRobbery071_x264
p538
aVRobbery072_x264
p539
aVRobbery073_x264
p540
aVRobbery074_x264
p541
aVRobbery075_x264
p542
aVRobbery076_x264
p543
aVRobbery077_x264
p544
aVRobbery078_x264
p545
aVRobbery079_x264
p546
aVRobbery080_x264
p547
aVRobbery081_x264
p548
aVRobbery082_x264
p549
aVRobbery083_x264
p550
aVRobbery084_x264
p551
aVRobbery085_x264
p552
aVRobbery086_x264
p553
aVRobbery087_x264
p554
aVRobbery088_x264
p555
aVRobbery089_x264
p556
aVRobbery090_x264
p557
aVRobbery091_x264
p558
aVRobbery092_x264
p559
aVRobbery093_x264
p560
aVRobbery094_x264
p561
aVRobbery095_x264
p562
aVRobbery096_x264
p563
aVRobbery097_x264
p564
aVRobbery098_x264
p565
aVRobbery099_x264
p566
aVRobbery100_x264
p567
aVRobbery101_x264
p568
aVRobbery103_x264
p569
aVRobbery104_x264
p570
aVRobbery105_x264
p571
aVRobbery107_x264
p572
aVRobbery108_x264
p573
aVRobbery109_x264
p574
aVRobbery110_x264
p575
aVRobbery111_x264
p576
aVRobbery112_x264
p577
aVRobbery113_x264
p578
aVRobbery114_x264
p579
aVRobbery115_x264
p580
aVRobbery116_x264
p581
aVRobbery117_x264
p582
aVRobbery118_x264
p583
aVRobbery119_x264
p584
aVRobbery120_x264
p585
aVRobbery121_x264
p586
aVRobbery122_x264
p587
aVRobbery123_x264
p588
aVRobbery124_x264
p589
aVRobbery125_x264
p590
aVRobbery126_x264
p591
aVRobbery127_x264
p592
aVRobbery128_x264
p593
aVRobbery129_x264
p594
aVRobbery130_x264
p595
aVRobbery131_x264
p596
aVRobbery132_x264
p597
aVRobbery133_x264
p598
aVRobbery134_x264
p599
aVRobbery135_x264
p600
aVRobbery136_x264
p601
aVRobbery138_x264
p602
aVRobbery139_x264
p603
aVRobbery140_x264
p604
aVRobbery141_x264
p605
aVRobbery142_x264
p606
aVRobbery143_x264
p607
aVRobbery144_x264
p608
aVRobbery145_x264
p609
aVRobbery146_x264
p610
aVRobbery147_x264
p611
aVRobbery148_x264
p612
aVRobbery149_x264
p613
aVRobbery150_x264
p614
aVShooting001_x264
p615
aVShooting003_x264
p616
aVShooting005_x264
p617
aVShooting006_x264
p618
aVShooting009_x264
p619
aVShooting012_x264
p620
aVShooting014_x264
p621
aVShooting017_x264
p622
aVShooting020_x264
p623
aVShooting023_x264
p624
aVShooting025_x264
p625
aVShooting027_x264
p626
aVShooting029_x264
p627
aVShooting030_x264
p628
aVShooting031_x264
p629
aVShooting036_x264
p630
aVShooting038_x264
p631
aVShooting039_x264
p632
aVShooting040_x264
p633
aVShooting041_x264
p634
aVShooting042_x264
p635
aVShooting044_x264
p636
aVShooting050_x264
p637
aVShooting051_x264
p638
aVShooting052_x264
p639
aVShooting053_x264
p640
aVShooting054_x264
p641
aVShoplifting003_x264
p642
aVShoplifting006_x264
p643
aVShoplifting008_x264
p644
aVShoplifting009_x264
p645
aVShoplifting012_x264
p646
aVShoplifting013_x264
p647
aVShoplifting014_x264
p648
aVShoplifting018_x264
p649
aVShoplifting019_x264
p650
aVShoplifting024_x264
p651
aVShoplifting025_x264
p652
aVShoplifting026_x264
p653
aVShoplifting030_x264
p654
aVShoplifting032_x264
p655
aVShoplifting036_x264
p656
aVShoplifting038_x264
p657
aVShoplifting040_x264
p658
aVShoplifting041_x264
p659
aVShoplifting042_x264
p660
aVShoplifting043_x264
p661
aVShoplifting045_x264
p662
aVShoplifting047_x264
p663
aVShoplifting048_x264
p664
aVShoplifting050_x264
p665
aVShoplifting051_x264
p666
aVShoplifting052_x264
p667
aVShoplifting053_x264
p668
aVShoplifting054_x264
p669
aVShoplifting055_x264
p670
aVStealing002_x264
p671
aVStealing003_x264
p672
aVStealing004_x264
p673
aVStealing006_x264
p674
aVStealing007_x264
p675
aVStealing008_x264
p676
aVStealing009_x264
p677
aVStealing010_x264
p678
aVStealing011_x264
p679
aVStealing012_x264
p680
aVStealing013_x264
p681
aVStealing014_x264
p682
aVStealing015_x264
p683
aVStealing016_x264
p684
aVStealing017_x264
p685
aVStealing018_x264
p686
aVStealing020_x264
p687
aVStealing021_x264
p688
aVStealing022_x264
p689
aVStealing023_x264
p690
aVStealing024_x264
p691
aVStealing025_x264
p692
aVStealing026_x264
p693
aVStealing027_x264
p694
aVStealing028_x264
p695
aVStealing029_x264
p696
aVStealing030_x264
p697
aVStealing031_x264
p698
aVStealing032_x264
p699
aVStealing035_x264
p700
aVStealing037_x264
p701
aVStealing042_x264
p702
aVStealing043_x264
p703
aVStealing044_x264
p704
aVStealing045_x264
p705
aVStealing046_x264
p706
aVStealing047_x264
p707
aVStealing048_x264
p708
aVStealing049_x264
p709
aVStealing050_x264
p710
aVStealing051_x264
p711
aVStealing052_x264
p712
aVStealing053_x264
p713
aVStealing054_x264
p714
aVStealing055_x264
p715
aVStealing057_x264
p716
aVStealing059_x264
p717
aVStealing060_x264
p718
aVStealing061_x264
p719
aVStealing063_x264
p720
aVStealing065_x264
p721
aVStealing066_x264
p722
aVStealing067_x264
p723
aVStealing068_x264
p724
aVStealing069_x264
p725
aVStealing070_x264
p726
aVStealing071_x264
p727
aVStealing072_x264
p728
aVStealing073_x264
p729
aVStealing074_x264
p730
aVStealing075_x264
p731
aVStealing077_x264
p732
aVStealing078_x264
p733
aVStealing080_x264
p734
aVStealing081_x264
p735
aVStealing082_x264
p736
aVStealing083_x264
p737
aVStealing084_x264
p738
aVStealing086_x264
p739
aVStealing087_x264
p740
aVStealing088_x264
p741
aVStealing089_x264
p742
aVStealing091_x264
p743
aVStealing092_x264
p744
aVStealing093_x264
p745
aVStealing094_x264
p746
aVStealing095_x264
p747
aVStealing096_x264
p748
aVStealing097_x264
p749
aVStealing098_x264
p750
aVStealing100_x264
p751
aVStealing101_x264
p752
aVStealing102_x264
p753
aVStealing103_x264
p754
aVStealing104_x264
p755
aVStealing105_x264
p756
aVStealing106_x264
p757
aVStealing107_x264
p758
aVStealing108_x264
p759
aVStealing109_x264
p760
aVStealing110_x264
p761
aVStealing111_x264
p762
aVStealing112_x264
p763
aVStealing113_x264
p764
aVStealing114_x264
p765
aVNormal_Videos001_x264
p766
aVNormal_Videos002_x264
p767
aVNormal_Videos004_x264
p768
aVNormal_Videos005_x264
p769
aVNormal_Videos007_x264
p770
aVNormal_Videos008_x264
p771
aVNormal_Videos009_x264
p772
aVNormal_Videos011_x264
p773
aVNormal_Videos012_x264
p774
aVNormal_Videos013_x264
p775
aVNormal_Videos016_x264
p776
aVNormal_Videos017_x264
p777
aVNormal_Videos020_x264
p778
aVNormal_Videos021_x264
p779
aVNormal_Videos022_x264
p780
aVNormal_Videos023_x264
p781
aVNormal_Videos026_x264
p782
aVNormal_Videos028_x264
p783
aVNormal_Videos029_x264
p784
aVNormal_Videos030_x264
p785
aVNormal_Videos031_x264
p786
aVNormal_Videos032_x264
p787
aVNormal_Videos035_x264
p788
aVNormal_Videos036_x264
p789
aVNormal_Videos037_x264
p790
aVNormal_Videos038_x264
p791
aVNormal_Videos039_x264
p792
aVNormal_Videos040_x264
p793
aVNormal_Videos043_x264
p794
aVNormal_Videos044_x264
p795
aVNormal_Videos045_x264
p796
aVNormal_Videos046_x264
p797
aVNormal_Videos047_x264
p798
aVNormal_Videos049_x264
p799
aVNormal_Videos052_x264
p800
aVNormal_Videos053_x264
p801
aVNormal_Videos054_x264
p802
aVNormal_Videos055_x264
p803
aVNormal_Videos057_x264
p804
aVNormal_Videos058_x264
p805
aVNormal_Videos060_x264
p806
aVNormal_Videos061_x264
p807
aVNormal_Videos062_x264
p808
aVNormal_Videos064_x264
p809
aVNormal_Videos065_x264
p810
aVNormal_Videos066_x264
p811
aVNormal_Videos068_x264
p812
aVNormal_Videos069_x264
p813
aVNormal_Videos071_x264
p814
aVNormal_Videos072_x264
p815
aVNormal_Videos073_x264
p816
aVNormal_Videos074_x264
p817
aVNormal_Videos075_x264
p818
aVNormal_Videos076_x264
p819
aVNormal_Videos077_x264
p820
aVNormal_Videos078_x264
p821
aVNormal_Videos079_x264
p822
aVNormal_Videos080_x264
p823
aVNormal_Videos081_x264
p824
aVNormal_Videos082_x264
p825
aVNormal_Videos083_x264
p826
aVNormal_Videos084_x264
p827
aVNormal_Videos085_x264
p828
aVNormal_Videos086_x264
p829
aVNormal_Videos087_x264
p830
aVNormal_Videos088_x264
p831
aVNormal_Videos089_x264
p832
aVNormal_Videos090_x264
p833
aVNormal_Videos091_x264
p834
aVNormal_Videos092_x264
p835
aVNormal_Videos093_x264
p836
aVNormal_Videos094_x264
p837
aVNormal_Videos095_x264
p838
aVNormal_Videos096_x264
p839
aVNormal_Videos097_x264
p840
aVNormal_Videos098_x264
p841
aVNormal_Videos099_x264
p842
aVNormal_Videos101_x264
p843
aVNormal_Videos102_x264
p844
aVNormal_Videos103_x264
p845
aVNormal_Videos104_x264
p846
aVNormal_Videos105_x264
p847
aVNormal_Videos106_x264
p848
aVNormal_Videos107_x264
p849
aVNormal_Videos108_x264
p850
aVNormal_Videos109_x264
p851
aVNormal_Videos110_x264
p852
aVNormal_Videos111_x264
p853
aVNormal_Videos112_x264
p854
aVNormal_Videos113_x264
p855
aVNormal_Videos114_x264
p856
aVNormal_Videos115_x264
p857
aVNormal_Videos116_x264
p858
aVNormal_Videos117_x264
p859
aVNormal_Videos118_x264
p860
aVNormal_Videos119_x264
p861
aVNormal_Videos120_x264
p862
aVNormal_Videos121_x264
p863
aVNormal_Videos122_x264
p864
aVNormal_Videos123_x264
p865
aVNormal_Videos124_x264
p866
aVNormal_Videos125_x264
p867
aVNormal_Videos126_x264
p868
aVNormal_Videos127_x264
p869
aVNormal_Videos128_x264
p870
aVNormal_Videos130_x264
p871
aVNormal_Videos131_x264
p872
aVNormal_Videos132_x264
p873
aVNormal_Videos133_x264
p874
aVNormal_Videos134_x264
p875
aVNormal_Videos135_x264
p876
aVNormal_Videos136_x264
p877
aVNormal_Videos137_x264
p878
aVNormal_Videos138_x264
p879
aVNormal_Videos139_x264
p880
aVNormal_Videos140_x264
p881
aVNormal_Videos141_x264
p882
aVNormal_Videos142_x264
p883
aVNormal_Videos143_x264
p884
aVNormal_Videos144_x264
p885
aVNormal_Videos145_x264
p886
aVNormal_Videos146_x264
p887
aVNormal_Videos147_x264
p888
aVNormal_Videos148_x264
p889
aVNormal_Videos149_x264
p890
aVNormal_Videos151_x264
p891
aVNormal_Videos152_x264
p892
aVNormal_Videos153_x264
p893
aVNormal_Videos154_x264
p894
aVNormal_Videos155_x264
p895
aVNormal_Videos156_x264
p896
aVNormal_Videos157_x264
p897
aVNormal_Videos158_x264
p898
aVNormal_Videos159_x264
p899
aVNormal_Videos160_x264
p900
aVNormal_Videos161_x264
p901
aVNormal_Videos162_x264
p902
aVNormal_Videos163_x264
p903
aVNormal_Videos164_x264
p904
aVNormal_Videos165_x264
p905
aVNormal_Videos166_x264
p906
aVNormal_Videos167_x264
p907
aVNormal_Videos169_x264
p908
aVNormal_Videos170_x264
p909
aVNormal_Videos171_x264
p910
aVNormal_Videos172_x264
p911
aVNormal_Videos173_x264
p912
aVNormal_Videos174_x264
p913
aVNormal_Videos176_x264
p914
aVNormal_Videos177_x264
p915
aVNormal_Videos178_x264
p916
aVNormal_Videos179_x264
p917
aVNormal_Videos180_x264
p918
aVNormal_Videos181_x264
p919
aVNormal_Videos183_x264
p920
aVNormal_Videos184_x264
p921
aVNormal_Videos185_x264
p922
aVNormal_Videos186_x264
p923
aVNormal_Videos187_x264
p924
aVNormal_Videos188_x264
p925
aVNormal_Videos190_x264
p926
aVNormal_Videos191_x264
p927
aVNormal_Videos192_x264
p928
aVNormal_Videos193_x264
p929
aVNormal_Videos194_x264
p930
aVNormal_Videos195_x264
p931
aVNormal_Videos197_x264
p932
aVNormal_Videos198_x264
p933
aVNormal_Videos199_x264
p934
aVNormal_Videos200_x264
p935
aVNormal_Videos201_x264
p936
aVNormal_Videos202_x264
p937
aVNormal_Videos204_x264
p938
aVNormal_Videos205_x264
p939
aVNormal_Videos206_x264
p940
aVNormal_Videos207_x264
p941
aVNormal_Videos208_x264
p942
aVNormal_Videos209_x264
p943
aVNormal_Videos211_x264
p944
aVNormal_Videos212_x264
p945
aVNormal_Videos213_x264
p946
aVNormal_Videos214_x264
p947
aVNormal_Videos215_x264
p948
aVNormal_Videos216_x264
p949
aVNormal_Videos218_x264
p950
aVNormal_Videos219_x264
p951
aVNormal_Videos220_x264
p952
aVNormal_Videos221_x264
p953
aVNormal_Videos222_x264
p954
aVNormal_Videos223_x264
p955
aVNormal_Videos225_x264
p956
aVNormal_Videos226_x264
p957
aVNormal_Videos227_x264
p958
aVNormal_Videos228_x264
p959
aVNormal_Videos229_x264
p960
aVNormal_Videos230_x264
p961
aVNormal_Videos231_x264
p962
aVNormal_Videos232_x264
p963
aVNormal_Videos233_x264
p964
aVNormal_Videos234_x264
p965
aVNormal_Videos235_x264
p966
aVNormal_Videos236_x264
p967
aVNormal_Videos237_x264
p968
aVNormal_Videos238_x264
p969
aVNormal_Videos239_x264
p970
aVNormal_Videos240_x264
p971
aVNormal_Videos241_x264
p972
aVNormal_Videos242_x264
p973
aVNormal_Videos243_x264
p974
aVNormal_Videos244_x264
p975
aVNormal_Videos245_x264
p976
aVNormal_Videos249_x264
p977
aVNormal_Videos250_x264
p978
aVNormal_Videos252_x264
p979
aVNormal_Videos253_x264
p980
aVNormal_Videos254_x264
p981
aVNormal_Videos255_x264
p982
aVNormal_Videos256_x264
p983
aVNormal_Videos257_x264
p984
aVNormal_Videos258_x264
p985
aVNormal_Videos259_x264
p986
aVNormal_Videos260_x264
p987
aVNormal_Videos261_x264
p988
aVNormal_Videos262_x264
p989
aVNormal_Videos263_x264
p990
aVNormal_Videos264_x264
p991
aVNormal_Videos265_x264
p992
aVNormal_Videos266_x264
p993
aVNormal_Videos267_x264
p994
aVNormal_Videos268_x264
p995
aVNormal_Videos269_x264
p996
aVNormal_Videos270_x264
p997
aVNormal_Videos271_x264
p998
aVNormal_Videos272_x264
p999
aVNormal_Videos273_x264
p1000
aVNormal_Videos274_x264
p1001
aVNormal_Videos275_x264
p1002
aVNormal_Videos276_x264
p1003
aVNormal_Videos277_x264
p1004
aVNormal_Videos278_x264
p1005
aVNormal_Videos279_x264
p1006
aVNormal_Videos280_x264
p1007
aVNormal_Videos281_x264
p1008
aVNormal_Videos282_x264
p1009
aVNormal_Videos283_x264
p1010
aVNormal_Videos284_x264
p1011
aVNormal_Videos285_x264
p1012
aVNormal_Videos286_x264
p1013
aVNormal_Videos287_x264
p1014
aVNormal_Videos288_x264
p1015
aVNormal_Videos290_x264
p1016
aVNormal_Videos291_x264
p1017
aVNormal_Videos292_x264
p1018
aVNormal_Videos293_x264
p1019
aVNormal_Videos294_x264
p1020
aVNormal_Videos295_x264
p1021
aVNormal_Videos296_x264
p1022
aVNormal_Videos297_x264
p1023
aVNormal_Videos298_x264
p1024
aVNormal_Videos299_x264
p1025
aVNormal_Videos300_x264
p1026
aVNormal_Videos301_x264
p1027
aVNormal_Videos302_x264
p1028
aVNormal_Videos303_x264
p1029
aVNormal_Videos304_x264
p1030
aVNormal_Videos305_x264
p1031
aVNormal_Videos306_x264
p1032
aVNormal_Videos307_x264
p1033
aVNormal_Videos308_x264
p1034
aVNormal_Videos309_x264
p1035
aVNormal_Videos311_x264
p1036
aVNormal_Videos313_x264
p1037
aVNormal_Videos314_x264
p1038
aVNormal_Videos315_x264
p1039
aVNormal_Videos316_x264
p1040
aVNormal_Videos318_x264
p1041
aVNormal_Videos319_x264
p1042
aVNormal_Videos320_x264
p1043
aVNormal_Videos321_x264
p1044
aVNormal_Videos322_x264
p1045
aVNormal_Videos323_x264
p1046
aVNormal_Videos324_x264
p1047
aVNormal_Videos325_x264
p1048
aVNormal_Videos326_x264
p1049
aVNormal_Videos327_x264
p1050
aVNormal_Videos328_x264
p1051
aVNormal_Videos329_x264
p1052
aVNormal_Videos330_x264
p1053
aVNormal_Videos331_x264
p1054
aVNormal_Videos332_x264
p1055
aVNormal_Videos333_x264
p1056
aVNormal_Videos334_x264
p1057
aVNormal_Videos335_x264
p1058
aVNormal_Videos336_x264
p1059
aVNormal_Videos337_x264
p1060
aVNormal_Videos338_x264
p1061
aVNormal_Videos339_x264
p1062
aVNormal_Videos340_x264
p1063
aVNormal_Videos341_x264
p1064
aVNormal_Videos342_x264
p1065
aVNormal_Videos343_x264
p1066
aVNormal_Videos344_x264
p1067
aVNormal_Videos346_x264
p1068
aVNormal_Videos347_x264
p1069
aVNormal_Videos348_x264
p1070
aVNormal_Videos349_x264
p1071
aVNormal_Videos350_x264
p1072
aVNormal_Videos351_x264
p1073
aVNormal_Videos353_x264
p1074
aVNormal_Videos354_x264
p1075
aVNormal_Videos355_x264
p1076
aVNormal_Videos356_x264
p1077
aVNormal_Videos357_x264
p1078
aVNormal_Videos358_x264
p1079
aVNormal_Videos359_x264
p1080
aVNormal_Videos361_x264
p1081
aVNormal_Videos362_x264
p1082
aVNormal_Videos363_x264
p1083
aVNormal_Videos364_x264
p1084
aVNormal_Videos366_x264
p1085
aVNormal_Videos367_x264
p1086
aVNormal_Videos368_x264
p1087
aVNormal_Videos369_x264
p1088
aVNormal_Videos370_x264
p1089
aVNormal_Videos371_x264
p1090
aVNormal_Videos372_x264
p1091
aVNormal_Videos373_x264
p1092
aVNormal_Videos374_x264
p1093
aVNormal_Videos375_x264
p1094
aVNormal_Videos376_x264
p1095
aVNormal_Videos377_x264
p1096
aVNormal_Videos378_x264
p1097
aVNormal_Videos379_x264
p1098
aVNormal_Videos380_x264
p1099
aVNormal_Videos381_x264
p1100
aVNormal_Videos382_x264
p1101
aVNormal_Videos383_x264
p1102
aVNormal_Videos384_x264
p1103
aVNormal_Videos385_x264
p1104
aVNormal_Videos386_x264
p1105
aVNormal_Videos387_x264
p1106
aVNormal_Videos388_x264
p1107
aVNormal_Videos389_x264
p1108
aVNormal_Videos390_x264
p1109
aVNormal_Videos391_x264
p1110
aVNormal_Videos392_x264
p1111
aVNormal_Videos393_x264
p1112
aVNormal_Videos394_x264
p1113
aVNormal_Videos395_x264
p1114
aVNormal_Videos396_x264
p1115
aVNormal_Videos397_x264
p1116
aVNormal_Videos398_x264
p1117
aVNormal_Videos399_x264
p1118
aVNormal_Videos400_x264
p1119
aVNormal_Videos402_x264
p1120
aVNormal_Videos403_x264
p1121
aVNormal_Videos404_x264
p1122
aVNormal_Videos405_x264
p1123
aVNormal_Videos406_x264
p1124
aVNormal_Videos407_x264
p1125
aVNormal_Videos408_x264
p1126
aVNormal_Videos409_x264
p1127
aVNormal_Videos410_x264
p1128
aVNormal_Videos411_x264
p1129
aVNormal_Videos412_x264
p1130
aVNormal_Videos413_x264
p1131
aVNormal_Videos414_x264
p1132
aVNormal_Videos415_x264
p1133
aVNormal_Videos416_x264
p1134
aVNormal_Videos418_x264
p1135
aVNormal_Videos419_x264
p1136
aVNormal_Videos420_x264
p1137
aVNormal_Videos421_x264
p1138
aVNormal_Videos422_x264
p1139
aVNormal_Videos423_x264
p1140
aVNormal_Videos424_x264
p1141
aVNormal_Videos425_x264
p1142
aVNormal_Videos426_x264
p1143
aVNormal_Videos427_x264
p1144
aVNormal_Videos428_x264
p1145
aVNormal_Videos429_x264
p1146
aVNormal_Videos430_x264
p1147
aVNormal_Videos431_x264
p1148
aVNormal_Videos432_x264
p1149
aVNormal_Videos433_x264
p1150
aVNormal_Videos434_x264
p1151
aVNormal_Videos435_x264
p1152
aVNormal_Videos436_x264
p1153
aVNormal_Videos437_x264
p1154
aVNormal_Videos438_x264
p1155
aVNormal_Videos440_x264
p1156
aVNormal_Videos441_x264
p1157
aVNormal_Videos442_x264
p1158
aVNormal_Videos443_x264
p1159
aVNormal_Videos444_x264
p1160
aVNormal_Videos445_x264
p1161
aVNormal_Videos446_x264
p1162
aVNormal_Videos447_x264
p1163
aVNormal_Videos448_x264
p1164
aVNormal_Videos449_x264
p1165
aVNormal_Videos450_x264
p1166
aVNormal_Videos451_x264
p1167
aVNormal_Videos454_x264
p1168
aVNormal_Videos455_x264
p1169
aVNormal_Videos456_x264
p1170
aVNormal_Videos457_x264
p1171
aVNormal_Videos458_x264
p1172
aVNormal_Videos459_x264
p1173
aVNormal_Videos460_x264
p1174
aVNormal_Videos461_x264
p1175
aVNormal_Videos462_x264
p1176
aVNormal_Videos463_x264
p1177
aVNormal_Videos464_x264
p1178
aVNormal_Videos465_x264
p1179
aVNormal_Videos466_x264
p1180
aVNormal_Videos467_x264
p1181
aVNormal_Videos468_x264
p1182
aVNormal_Videos469_x264
p1183
aVNormal_Videos470_x264
p1184
aVNormal_Videos471_x264
p1185
aVNormal_Videos472_x264
p1186
aVNormal_Videos473_x264
p1187
aVNormal_Videos474_x264
p1188
aVNormal_Videos475_x264
p1189
aVNormal_Videos476_x264
p1190
aVNormal_Videos477_x264
p1191
aVNormal_Videos479_x264
p1192
aVNormal_Videos480_x264
p1193
aVNormal_Videos481_x264
p1194
aVNormal_Videos482_x264
p1195
aVNormal_Videos483_x264
p1196
aVNormal_Videos484_x264
p1197
aVNormal_Videos485_x264
p1198
aVNormal_Videos486_x264
p1199
aVNormal_Videos487_x264
p1200
aVNormal_Videos488_x264
p1201
aVNormal_Videos489_x264
p1202
aVNormal_Videos490_x264
p1203
aVNormal_Videos491_x264
p1204
aVNormal_Videos492_x264
p1205
aVNormal_Videos493_x264
p1206
aVNormal_Videos494_x264
p1207
aVNormal_Videos495_x264
p1208
aVNormal_Videos496_x264
p1209
aVNormal_Videos497_x264
p1210
aVNormal_Videos498_x264
p1211
aVNormal_Videos499_x264
p1212
aVNormal_Videos500_x264
p1213
aVNormal_Videos501_x264
p1214
aVNormal_Videos502_x264
p1215
aVNormal_Videos503_x264
p1216
aVNormal_Videos504_x264
p1217
aVNormal_Videos505_x264
p1218
aVNormal_Videos506_x264
p1219
aVNormal_Videos507_x264
p1220
aVNormal_Videos508_x264
p1221
aVNormal_Videos509_x264
p1222
aVNormal_Videos510_x264
p1223
aVNormal_Videos511_x264
p1224
aVNormal_Videos512_x264
p1225
aVNormal_Videos513_x264
p1226
aVNormal_Videos514_x264
p1227
aVNormal_Videos515_x264
p1228
aVNormal_Videos516_x264
p1229
aVNormal_Videos517_x264
p1230
aVNormal_Videos518_x264
p1231
aVNormal_Videos519_x264
p1232
aVNormal_Videos520_x264
p1233
aVNormal_Videos521_x264
p1234
aVNormal_Videos522_x264
p1235
aVNormal_Videos523_x264
p1236
aVNormal_Videos524_x264
p1237
aVNormal_Videos525_x264
p1238
aVNormal_Videos526_x264
p1239
aVNormal_Videos527_x264
p1240
aVNormal_Videos528_x264
p1241
aVNormal_Videos529_x264
p1242
aVNormal_Videos530_x264
p1243
aVNormal_Videos531_x264
p1244
aVNormal_Videos532_x264
p1245
aVNormal_Videos533_x264
p1246
aVNormal_Videos534_x264
p1247
aVNormal_Videos535_x264
p1248
aVNormal_Videos536_x264
p1249
aVNormal_Videos537_x264
p1250
aVNormal_Videos538_x264
p1251
aVNormal_Videos539_x264
p1252
aVNormal_Videos540_x264
p1253
aVNormal_Videos541_x264
p1254
aVNormal_Videos542_x264
p1255
aVNormal_Videos543_x264
p1256
aVNormal_Videos544_x264
p1257
aVNormal_Videos545_x264
p1258
aVNormal_Videos546_x264
p1259
aVNormal_Videos547_x264
p1260
aVNormal_Videos548_x264
p1261
aVNormal_Videos549_x264
p1262
aVNormal_Videos550_x264
p1263
aVNormal_Videos551_x264
p1264
aVNormal_Videos552_x264
p1265
aVNormal_Videos553_x264
p1266
aVNormal_Videos554_x264
p1267
aVNormal_Videos555_x264
p1268
aVNormal_Videos556_x264
p1269
aVNormal_Videos557_x264
p1270
aVNormal_Videos558_x264
p1271
aVNormal_Videos559_x264
p1272
aVNormal_Videos560_x264
p1273
aVNormal_Videos561_x264
p1274
aVNormal_Videos562_x264
p1275
aVNormal_Videos563_x264
p1276
aVNormal_Videos564_x264
p1277
aVNormal_Videos565_x264
p1278
aVNormal_Videos566_x264
p1279
aVNormal_Videos567_x264
p1280
aVNormal_Videos568_x264
p1281
aVNormal_Videos569_x264
p1282
aVNormal_Videos570_x264
p1283
aVNormal_Videos571_x264
p1284
aVNormal_Videos572_x264
p1285
aVNormal_Videos573_x264
p1286
aVNormal_Videos574_x264
p1287
aVNormal_Videos575_x264
p1288
aVNormal_Videos577_x264
p1289
aVNormal_Videos578_x264
p1290
aVNormal_Videos579_x264
p1291
aVNormal_Videos580_x264
p1292
aVNormal_Videos581_x264
p1293
aVNormal_Videos582_x264
p1294
aVNormal_Videos583_x264
p1295
aVNormal_Videos584_x264
p1296
aVNormal_Videos585_x264
p1297
aVNormal_Videos586_x264
p1298
aVNormal_Videos587_x264
p1299
aVNormal_Videos588_x264
p1300
aVNormal_Videos589_x264
p1301
aVNormal_Videos590_x264
p1302
aVNormal_Videos591_x264
p1303
aVNormal_Videos592_x264
p1304
aVNormal_Videos593_x264
p1305
aVNormal_Videos594_x264
p1306
aVNormal_Videos595_x264
p1307
aVNormal_Videos596_x264
p1308
aVNormal_Videos598_x264
p1309
aVNormal_Videos599_x264
p1310
aVNormal_Videos600_x264
p1311
aVNormal_Videos601_x264
p1312
aVNormal_Videos602_x264
p1313
aVNormal_Videos604_x264
p1314
aVNormal_Videos605_x264
p1315
aVNormal_Videos607_x264
p1316
aVNormal_Videos608_x264
p1317
aVNormal_Videos609_x264
p1318
aVNormal_Videos610_x264
p1319
aVNormal_Videos611_x264
p1320
aVNormal_Videos612_x264
p1321
aVNormal_Videos613_x264
p1322
aVNormal_Videos614_x264
p1323
aVNormal_Videos615_x264
p1324
aVNormal_Videos616_x264
p1325
aVNormal_Videos617_x264
p1326
aVNormal_Videos618_x264
p1327
aVNormal_Videos619_x264
p1328
aVNormal_Videos620_x264
p1329
aVNormal_Videos622_x264
p1330
aVNormal_Videos623_x264
p1331
aVNormal_Videos624_x264
p1332
aVNormal_Videos625_x264
p1333
aVNormal_Videos626_x264
p1334
aVNormal_Videos627_x264
p1335
aVNormal_Videos628_x264
p1336
aVNormal_Videos629_x264
p1337
aVNormal_Videos630_x264
p1338
aVNormal_Videos631_x264
p1339
aVNormal_Videos632_x264
p1340
aVNormal_Videos633_x264
p1341
aVNormal_Videos635_x264
p1342
aVNormal_Videos636_x264
p1343
aVNormal_Videos637_x264
p1344
aVNormal_Videos638_x264
p1345
aVNormal_Videos639_x264
p1346
aVNormal_Videos640_x264
p1347
aVNormal_Videos642_x264
p1348
aVNormal_Videos643_x264
p1349
aVNormal_Videos644_x264
p1350
aVNormal_Videos645_x264
p1351
aVNormal_Videos646_x264
p1352
aVNormal_Videos647_x264
p1353
aVNormal_Videos648_x264
p1354
aVNormal_Videos649_x264
p1355
aVNormal_Videos650_x264
p1356
aVNormal_Videos651_x264
p1357
aVNormal_Videos652_x264
p1358
aVNormal_Videos653_x264
p1359
aVNormal_Videos654_x264
p1360
aVNormal_Videos655_x264
p1361
aVNormal_Videos657_x264
p1362
aVNormal_Videos658_x264
p1363
aVNormal_Videos659_x264
p1364
aVNormal_Videos660_x264
p1365
aVNormal_Videos661_x264
p1366
aVNormal_Videos662_x264
p1367
aVNormal_Videos663_x264
p1368
aVNormal_Videos664_x264
p1369
aVNormal_Videos665_x264
p1370
aVNormal_Videos666_x264
p1371
aVNormal_Videos667_x264
p1372
aVNormal_Videos668_x264
p1373
aVNormal_Videos669_x264
p1374
aVNormal_Videos670_x264
p1375
aVNormal_Videos671_x264
p1376
aVNormal_Videos672_x264
p1377
aVNormal_Videos673_x264
p1378
aVNormal_Videos674_x264
p1379
aVNormal_Videos675_x264
p1380
aVNormal_Videos676_x264
p1381
aVNormal_Videos677_x264
p1382
aVNormal_Videos678_x264
p1383
aVNormal_Videos679_x264
p1384
aVNormal_Videos680_x264
p1385
aVNormal_Videos681_x264
p1386
aVNormal_Videos682_x264
p1387
aVNormal_Videos683_x264
p1388
aVNormal_Videos684_x264
p1389
aVNormal_Videos685_x264
p1390
aVNormal_Videos687_x264
p1391
aVNormal_Videos688_x264
p1392
aVNormal_Videos689_x264
p1393
aVNormal_Videos690_x264
p1394
aVNormal_Videos691_x264
p1395
aVNormal_Videos692_x264
p1396
aVNormal_Videos693_x264
p1397
aVNormal_Videos694_x264
p1398
aVNormal_Videos695_x264
p1399
aVNormal_Videos697_x264
p1400
aVNormal_Videos698_x264
p1401
aVNormal_Videos699_x264
p1402
aVNormal_Videos700_x264
p1403
aVNormal_Videos701_x264
p1404
aVNormal_Videos703_x264
p1405
aVNormal_Videos705_x264
p1406
aVNormal_Videos706_x264
p1407
aVNormal_Videos707_x264
p1408
aVNormal_Videos708_x264
p1409
aVNormal_Videos709_x264
p1410
aVNormal_Videos711_x264
p1411
aVNormal_Videos712_x264
p1412
aVNormal_Videos713_x264
p1413
aVNormal_Videos714_x264
p1414
aVNormal_Videos715_x264
p1415
aVNormal_Videos716_x264
p1416
aVNormal_Videos718_x264
p1417
aVNormal_Videos719_x264
p1418
aVNormal_Videos720_x264
p1419
aVNormal_Videos721_x264
p1420
aVNormal_Videos723_x264
p1421
aVNormal_Videos724_x264
p1422
aVNormal_Videos726_x264
p1423
aVNormal_Videos727_x264
p1424
aVNormal_Videos728_x264
p1425
aVNormal_Videos729_x264
p1426
aVNormal_Videos730_x264
p1427
aVNormal_Videos731_x264
p1428
aVNormal_Videos732_x264
p1429
aVNormal_Videos733_x264
p1430
aVNormal_Videos734_x264
p1431
aVNormal_Videos735_x264
p1432
aVNormal_Videos736_x264
p1433
aVNormal_Videos737_x264
p1434
aVNormal_Videos738_x264
p1435
aVNormal_Videos739_x264
p1436
aVNormal_Videos740_x264
p1437
aVNormal_Videos741_x264
p1438
aVNormal_Videos742_x264
p1439
aVNormal_Videos743_x264
p1440
aVNormal_Videos744_x264
p1441
aVNormal_Videos746_x264
p1442
aVNormal_Videos747_x264
p1443
aVNormal_Videos748_x264
p1444
aVNormal_Videos749_x264
p1445
aVNormal_Videos750_x264
p1446
aVNormal_Videos751_x264
p1447
aVNormal_Videos752_x264
p1448
aVNormal_Videos753_x264
p1449
aVNormal_Videos754_x264
p1450
aVNormal_Videos755_x264
p1451
aVNormal_Videos756_x264
p1452
aVNormal_Videos757_x264
p1453
aVNormal_Videos759_x264
p1454
aVNormal_Videos760_x264
p1455
aVNormal_Videos761_x264
p1456
aVNormal_Videos762_x264
p1457
aVNormal_Videos763_x264
p1458
aVNormal_Videos764_x264
p1459
aVNormal_Videos765_x264
p1460
aVNormal_Videos766_x264
p1461
aVNormal_Videos767_x264
p1462
aVNormal_Videos768_x264
p1463
aVNormal_Videos769_x264
p1464
aVNormal_Videos770_x264
p1465
aVNormal_Videos771_x264
p1466
aVNormal_Videos772_x264
p1467
aVNormal_Videos773_x264
p1468
aVNormal_Videos774_x264
p1469
aVNormal_Videos775_x264
p1470
aVNormal_Videos776_x264
p1471
aVNormal_Videos777_x264
p1472
aVNormal_Videos779_x264
p1473
aVNormal_Videos784_x264
p1474
aVNormal_Videos785_x264
p1475
aVNormal_Videos786_x264
p1476
aVNormal_Videos787_x264
p1477
aVNormal_Videos788_x264
p1478
aVNormal_Videos789_x264
p1479
aVNormal_Videos790_x264
p1480
aVNormal_Videos791_x264
p1481
aVNormal_Videos792_x264
p1482
aVNormal_Videos793_x264
p1483
aVNormal_Videos794_x264
p1484
aVNormal_Videos795_x264
p1485
aVNormal_Videos796_x264
p1486
aVNormal_Videos797_x264
p1487
aVNormal_Videos799_x264
p1488
aVNormal_Videos800_x264
p1489
aVNormal_Videos802_x264
p1490
aVNormal_Videos803_x264
p1491
aVNormal_Videos804_x264
p1492
aVNormal_Videos805_x264
p1493
aVNormal_Videos806_x264
p1494
aVNormal_Videos807_x264
p1495
aVNormal_Videos808_x264
p1496
aVNormal_Videos809_x264
p1497
aVNormal_Videos810_x264
p1498
aVNormal_Videos811_x264
p1499
aVNormal_Videos812_x264
p1500
aVNormal_Videos813_x264
p1501
aVNormal_Videos814_x264
p1502
aVNormal_Videos815_x264
p1503
aVNormal_Videos816_x264
p1504
aVNormal_Videos817_x264
p1505
aVNormal_Videos818_x264
p1506
aVNormal_Videos819_x264
p1507
aVNormal_Videos820_x264
p1508
aVNormal_Videos821_x264
p1509
aVNormal_Videos822_x264
p1510
aVNormal_Videos823_x264
p1511
aVNormal_Videos824_x264
p1512
aVNormal_Videos825_x264
p1513
aVNormal_Videos826_x264
p1514
aVNormal_Videos827_x264
p1515
aVNormal_Videos829_x264
p1516
aVNormal_Videos830_x264
p1517
aVNormal_Videos832_x264
p1518
aVNormal_Videos833_x264
p1519
aVNormal_Videos834_x264
p1520
aVNormal_Videos835_x264
p1521
aVNormal_Videos836_x264
p1522
aVNormal_Videos837_x264
p1523
aVNormal_Videos838_x264
p1524
aVNormal_Videos839_x264
p1525
aVNormal_Videos840_x264
p1526
aVNormal_Videos841_x264
p1527
aVNormal_Videos842_x264
p1528
aVNormal_Videos843_x264
p1529
aVNormal_Videos844_x264
p1530
aVNormal_Videos845_x264
p1531
aVNormal_Videos846_x264
p1532
aVNormal_Videos847_x264
p1533
aVNormal_Videos848_x264
p1534
aVNormal_Videos849_x264
p1535
aVNormal_Videos850_x264
p1536
aVNormal_Videos851_x264
p1537
aVNormal_Videos852_x264
p1538
aVNormal_Videos853_x264
p1539
aVNormal_Videos854_x264
p1540
aVNormal_Videos855_x264
p1541
aVNormal_Videos856_x264
p1542
aVNormal_Videos857_x264
p1543
aVNormal_Videos858_x264
p1544
aVNormal_Videos859_x264
p1545
aVNormal_Videos860_x264
p1546
aVNormal_Videos861_x264
p1547
aVNormal_Videos862_x264
p1548
aVNormal_Videos863_x264
p1549
aVNormal_Videos864_x264
p1550
aVNormal_Videos865_x264
p1551
aVNormal_Videos916_x264
p1552
aVNormal_Videos917_x264
p1553
aVNormal_Videos918_x264
p1554
aVNormal_Videos919_x264
p1555
aVNormal_Videos920_x264
p1556
aVNormal_Videos921_x264
p1557
aVNormal_Videos922_x264
p1558
aVNormal_Videos942_x264
p1559
aVNormal_Videos945_x264
p1560
aVNormal_Videos946_x264
p1561
aVNormal_Videos947_x264
p1562
aVNormal_Videos948_x264
p1563
aVNormal_Videos949_x264
p1564
aVNormal_Videos950_x264
p1565
aVVandalism001_x264
p1566
aVVandalism002_x264
p1567
aVVandalism003_x264
p1568
aVVandalism004_x264
p1569
aVVandalism005_x264
p1570
aVVandalism006_x264
p1571
aVVandalism008_x264
p1572
aVVandalism009_x264
p1573
aVVandalism010_x264
p1574
aVVandalism011_x264
p1575
aVVandalism012_x264
p1576
aVVandalism013_x264
p1577
aVVandalism014_x264
p1578
aVVandalism016_x264
p1579
aVVandalism018_x264
p1580
aVVandalism019_x264
p1581
aVVandalism020_x264
p1582
aVVandalism021_x264
p1583
aVVandalism022_x264
p1584
aVVandalism023_x264
p1585
aVVandalism024_x264
p1586
aVVandalism025_x264
p1587
aVVandalism026_x264
p1588
aVVandalism027_x264
p1589
aVVandalism029_x264
p1590
aVVandalism030_x264
p1591
aVVandalism031_x264
p1592
aVVandalism032_x264
p1593
aVVandalism033_x264
p1594
aVVandalism034_x264
p1595
aVVandalism035_x264
p1596
aVVandalism037_x264
p1597
aVVandalism038_x264
p1598
aVVandalism039_x264
p1599
aVVandalism040_x264
p1600
aVVandalism041_x264
p1601
aVVandalism042_x264
p1602
aVVandalism043_x264
p1603
aVVandalism044_x264
p1604
aVVandalism045_x264
p1605
aVVandalism046_x264
p1606
aVVandalism047_x264
p1607
aVVandalism048_x264
p1608
aVVandalism049_x264
p1609
aVVandalism050_x264
p1610
a.